target datalayout = "e-m:e-p270:32:32-p271:32:32-p272:64:64-i64:64-i128:128-f80:128-n8:16:32:64-S128"
target triple = "x86_64-pc-linux-gnu"

%struct.dt_control_crawler_result_t = type { i32, i64, i64, ptr, ptr }
%struct.dt_control_crawler_gui_t = type { ptr, ptr, ptr, ptr, ptr }
%struct._GtkTreeIter = type { i32, ptr, ptr, ptr }
%union.anon = type { ptr }

@.str.43 = private unnamed_addr constant [32 x i8] c"ERROR: %s NOT synced DB \E2\86\92 XMP\00", align 1
@.str.44 = private unnamed_addr constant [75 x i8] c"ERROR: cannot write %s \0Athe destination may be full, offline or read-only.\00", align 1
@.str.45 = private unnamed_addr constant [30 x i8] c"SUCCESS: %s synced DB \E2\86\92 XMP\00", align 1
@.str.46 = private unnamed_addr constant [35 x i8] c"time::modified,time::modified-usec\00", align 1
@.str.47 = private unnamed_addr constant [15 x i8] c"time::modified\00", align 1
@.str.48 = private unnamed_addr constant [1 x i8] zeroinitializer, align 1

; Function Attrs: nounwind uwtable
define internal void @_free_crawler_result(ptr noundef %0) #0 {
  %2 = alloca ptr, align 8
  store ptr %0, ptr %2, align 8, !tbaa !62
  %3 = load ptr, ptr %2, align 8, !tbaa !62
  %4 = getelementptr inbounds nuw %struct.dt_control_crawler_result_t, ptr %3, i32 0, i32 3
  %5 = load ptr, ptr %4, align 8, !tbaa !68
  call void @g_free(ptr noundef %5)
  %6 = load ptr, ptr %2, align 8, !tbaa !62
  %7 = getelementptr inbounds nuw %struct.dt_control_crawler_result_t, ptr %6, i32 0, i32 4
  %8 = load ptr, ptr %7, align 8, !tbaa !69
  call void @g_free(ptr noundef %8)
  %9 = load ptr, ptr %2, align 8, !tbaa !62
  %10 = getelementptr inbounds nuw %struct.dt_control_crawler_result_t, ptr %9, i32 0, i32 4
  store ptr null, ptr %10, align 8, !tbaa !69
  %11 = load ptr, ptr %2, align 8, !tbaa !62
  %12 = getelementptr inbounds nuw %struct.dt_control_crawler_result_t, ptr %11, i32 0, i32 3
  store ptr null, ptr %12, align 8, !tbaa !68
  ret void
}

; Function Attrs: nounwind uwtable
define internal void @_append_row_to_remove(ptr noundef %0, ptr noundef %1, ptr noundef %2) #0 {
  %4 = alloca ptr, align 8
  %5 = alloca ptr, align 8
  %6 = alloca ptr, align 8
  %7 = alloca ptr, align 8
  store ptr %0, ptr %4, align 8, !tbaa !87
  store ptr %1, ptr %5, align 8, !tbaa !88
  store ptr %2, ptr %6, align 8, !tbaa !135
  call void @llvm.lifetime.start.p0(i64 8, ptr %7) #11
  %8 = load ptr, ptr %4, align 8, !tbaa !87
  %9 = load ptr, ptr %5, align 8, !tbaa !88
  %10 = call ptr @gtk_tree_row_reference_new(ptr noundef %8, ptr noundef %9)
  store ptr %10, ptr %7, align 8, !tbaa !137
  %11 = load ptr, ptr %6, align 8, !tbaa !135
  %12 = load ptr, ptr %11, align 8, !tbaa !6
  %13 = load ptr, ptr %7, align 8, !tbaa !137
  %14 = call ptr @g_list_append(ptr noundef %12, ptr noundef %13)
  %15 = load ptr, ptr %6, align 8, !tbaa !135
  store ptr %14, ptr %15, align 8, !tbaa !6
  call void @llvm.lifetime.end.p0(i64 8, ptr %7) #11
  ret void
}

; Function Attrs: nounwind uwtable
define internal void @_log_synchronization(ptr noundef %0, ptr noundef %1, ptr noundef %2) #0 {
  %4 = alloca ptr, align 8
  %5 = alloca ptr, align 8
  %6 = alloca ptr, align 8
  %7 = alloca ptr, align 8
  %8 = alloca %struct._GtkTreeIter, align 8
  %9 = alloca ptr, align 8
  store ptr %0, ptr %4, align 8, !tbaa !76
  store ptr %1, ptr %5, align 8, !tbaa !57
  store ptr %2, ptr %6, align 8, !tbaa !57
  call void @llvm.lifetime.start.p0(i64 8, ptr %7) #11
  %10 = load ptr, ptr %5, align 8, !tbaa !57
  %11 = load ptr, ptr %6, align 8, !tbaa !57
  %12 = icmp ne ptr %11, null
  br i1 %12, label %13, label %15

13:                                               ; preds = %3
  %14 = load ptr, ptr %6, align 8, !tbaa !57
  br label %16

15:                                               ; preds = %3
  br label %16

16:                                               ; preds = %15, %13
  %17 = phi ptr [ %14, %13 ], [ @.str.48, %15 ]
  %18 = call ptr (ptr, ...) @g_markup_printf_escaped(ptr noundef %10, ptr noundef %17)
  store ptr %18, ptr %7, align 8, !tbaa !57
  call void @llvm.lifetime.start.p0(i64 32, ptr %8) #11
  call void @llvm.lifetime.start.p0(i64 8, ptr %9) #11
  %19 = load ptr, ptr %4, align 8, !tbaa !76
  %20 = getelementptr inbounds nuw %struct.dt_control_crawler_gui_t, ptr %19, i32 0, i32 2
  %21 = load ptr, ptr %20, align 8, !tbaa !110
  %22 = call i64 @gtk_tree_view_get_type() #15
  %23 = call ptr @g_type_check_instance_cast(ptr noundef %21, i64 noundef %22)
  %24 = call ptr @gtk_tree_view_get_model(ptr noundef %23)
  store ptr %24, ptr %9, align 8, !tbaa !87
  %25 = load ptr, ptr %9, align 8, !tbaa !87
  %26 = call i64 @gtk_list_store_get_type() #15
  %27 = call ptr @g_type_check_instance_cast(ptr noundef %25, i64 noundef %26)
  call void @gtk_list_store_append(ptr noundef %27, ptr noundef %8)
  %28 = load ptr, ptr %9, align 8, !tbaa !87
  %29 = call i64 @gtk_list_store_get_type() #15
  %30 = call ptr @g_type_check_instance_cast(ptr noundef %28, i64 noundef %29)
  %31 = load ptr, ptr %7, align 8, !tbaa !57
  call void (ptr, ptr, ...) @gtk_list_store_set(ptr noundef %30, ptr noundef %8, i32 noundef 0, ptr noundef %31, i32 noundef -1)
  %32 = load ptr, ptr %7, align 8, !tbaa !57
  call void @g_free(ptr noundef %32)
  call void @llvm.lifetime.end.p0(i64 8, ptr %9) #11
  call void @llvm.lifetime.end.p0(i64 32, ptr %8) #11
  call void @llvm.lifetime.end.p0(i64 8, ptr %7) #11
  ret void
}

; Function Attrs: nounwind uwtable
define internal void @_set_modification_time(ptr noundef %0, i64 noundef %1) #0 {
  %3 = alloca ptr, align 8
  %4 = alloca i64, align 8
  %5 = alloca ptr, align 8
  %6 = alloca ptr, align 8
  %7 = alloca %union.anon, align 8
  %8 = alloca ptr, align 8
  %9 = alloca ptr, align 8
  store ptr %0, ptr %3, align 8, !tbaa !57
  store i64 %1, ptr %4, align 8, !tbaa !56
  call void @llvm.lifetime.start.p0(i64 8, ptr %5) #11
  %10 = load ptr, ptr %3, align 8, !tbaa !57
  %11 = call ptr @g_file_new_for_path(ptr noundef %10)
  store ptr %11, ptr %5, align 8, !tbaa !131
  call void @llvm.lifetime.start.p0(i64 8, ptr %6) #11
  %12 = load ptr, ptr %5, align 8, !tbaa !131
  %13 = call ptr @g_file_query_info(ptr noundef %12, ptr noundef @.str.46, i32 noundef 0, ptr noundef null, ptr noundef null)
  store ptr %13, ptr %6, align 8, !tbaa !133
  %14 = load ptr, ptr %6, align 8, !tbaa !133
  %15 = icmp ne ptr %14, null
  br i1 %15, label %16, label %22

16:                                               ; preds = %2
  %17 = load ptr, ptr %6, align 8, !tbaa !133
  %18 = load i64, ptr %4, align 8, !tbaa !56
  call void @g_file_info_set_attribute_uint64(ptr noundef %17, ptr noundef @.str.47, i64 noundef %18)
  %19 = load ptr, ptr %5, align 8, !tbaa !131
  %20 = load ptr, ptr %6, align 8, !tbaa !133
  %21 = call i32 @g_file_set_attributes_from_info(ptr noundef %19, ptr noundef %20, i32 noundef 0, ptr noundef null, ptr noundef null)
  br label %22

22:                                               ; preds = %16, %2
  %23 = load ptr, ptr %5, align 8, !tbaa !131
  call void @g_object_unref(ptr noundef %23)
  %24 = load ptr, ptr %6, align 8, !tbaa !133
  %25 = icmp ne ptr %24, null
  br i1 %25, label %26, label %39

26:                                               ; preds = %22
  br label %27

27:                                               ; preds = %26
  call void @llvm.lifetime.start.p0(i64 8, ptr %7) #11
  call void @llvm.lifetime.start.p0(i64 8, ptr %8) #11
  call void @llvm.lifetime.start.p0(i64 8, ptr %9) #11
  store ptr @g_object_unref, ptr %9, align 8, !tbaa !75
  store ptr %6, ptr %7, align 8, !tbaa !58
  %28 = load ptr, ptr %7, align 8, !tbaa !58
  %29 = load ptr, ptr %28, align 8, !tbaa !75
  store ptr %29, ptr %8, align 8, !tbaa !75
  %30 = load ptr, ptr %8, align 8, !tbaa !75
  %31 = icmp ne ptr %30, null
  br i1 %31, label %32, label %36

32:                                               ; preds = %27
  %33 = load ptr, ptr %7, align 8, !tbaa !58
  store ptr null, ptr %33, align 8, !tbaa !75
  %34 = load ptr, ptr %9, align 8, !tbaa !75
  %35 = load ptr, ptr %8, align 8, !tbaa !75
  call void %34(ptr noundef %35)
  br label %36

36:                                               ; preds = %32, %27
  call void @llvm.lifetime.end.p0(i64 8, ptr %9) #11
  call void @llvm.lifetime.end.p0(i64 8, ptr %8) #11
  call void @llvm.lifetime.end.p0(i64 8, ptr %7) #11
  br label %37

37:                                               ; preds = %36
  br label %38

38:                                               ; preds = %37
  br label %39

39:                                               ; preds = %38, %22
  call void @llvm.lifetime.end.p0(i64 8, ptr %6) #11
  call void @llvm.lifetime.end.p0(i64 8, ptr %5) #11
  ret void
}

; Function Attrs: nounwind uwtable
define internal void @_get_crawler_entry_from_model(ptr noundef %0, ptr noundef %1, ptr noundef %2) #0 {
  %4 = alloca ptr, align 8
  %5 = alloca ptr, align 8
  %6 = alloca ptr, align 8
  store ptr %0, ptr %4, align 8, !tbaa !87
  store ptr %1, ptr %5, align 8, !tbaa !90
  store ptr %2, ptr %6, align 8, !tbaa !62
  %7 = load ptr, ptr %4, align 8, !tbaa !87
  %8 = load ptr, ptr %5, align 8, !tbaa !90
  %9 = load ptr, ptr %6, align 8, !tbaa !62
  %10 = getelementptr inbounds nuw %struct.dt_control_crawler_result_t, ptr %9, i32 0, i32 3
  %11 = load ptr, ptr %6, align 8, !tbaa !62
  %12 = getelementptr inbounds nuw %struct.dt_control_crawler_result_t, ptr %11, i32 0, i32 0
  %13 = load ptr, ptr %6, align 8, !tbaa !62
  %14 = getelementptr inbounds nuw %struct.dt_control_crawler_result_t, ptr %13, i32 0, i32 4
  %15 = load ptr, ptr %6, align 8, !tbaa !62
  %16 = getelementptr inbounds nuw %struct.dt_control_crawler_result_t, ptr %15, i32 0, i32 2
  %17 = load ptr, ptr %6, align 8, !tbaa !62
  %18 = getelementptr inbounds nuw %struct.dt_control_crawler_result_t, ptr %17, i32 0, i32 1
  call void (ptr, ptr, ...) @gtk_tree_model_get(ptr noundef %7, ptr noundef %8, i32 noundef 1, ptr noundef %10, i32 noundef 0, ptr noundef %12, i32 noundef 2, ptr noundef %14, i32 noundef 6, ptr noundef %16, i32 noundef 5, ptr noundef %18, i32 noundef -1)
  ret void
}

; Function Attrs: nounwind uwtable
define internal void @sync_db_to_xmp(ptr noundef %0, ptr noundef %1, ptr noundef %2, ptr noundef %3) #0 {
  %5 = alloca ptr, align 8
  %6 = alloca ptr, align 8
  %7 = alloca ptr, align 8
  %8 = alloca ptr, align 8
  %9 = alloca ptr, align 8
  %10 = alloca %struct.dt_control_crawler_result_t, align 8
  %11 = alloca i32, align 4
  store ptr %0, ptr %5, align 8, !tbaa !87
  store ptr %1, ptr %6, align 8, !tbaa !88
  store ptr %2, ptr %7, align 8, !tbaa !90
  store ptr %3, ptr %8, align 8, !tbaa !75
  call void @llvm.lifetime.start.p0(i64 8, ptr %9) #11
  %12 = load ptr, ptr %8, align 8, !tbaa !75
  store ptr %12, ptr %9, align 8, !tbaa !76
  call void @llvm.lifetime.start.p0(i64 40, ptr %10) #11
  call void @llvm.memset.p0.i64(ptr align 8 %10, i8 0, i64 40, i1 false)
  %13 = load ptr, ptr %5, align 8, !tbaa !87
  %14 = load ptr, ptr %7, align 8, !tbaa !90
  call void @_get_crawler_entry_from_model(ptr noundef %13, ptr noundef %14, ptr noundef %10)
  call void @llvm.lifetime.start.p0(i64 4, ptr %11) #11
  %15 = getelementptr inbounds nuw %struct.dt_control_crawler_result_t, ptr %10, i32 0, i32 0
  %16 = load i32, ptr %15, align 8, !tbaa !64
  %17 = call i32 @dt_image_write_sidecar_file(i32 noundef %16)
  store i32 %17, ptr %11, align 4, !tbaa !11
  %18 = getelementptr inbounds nuw %struct.dt_control_crawler_result_t, ptr %10, i32 0, i32 4
  %19 = load ptr, ptr %18, align 8, !tbaa !69
  %20 = getelementptr inbounds nuw %struct.dt_control_crawler_result_t, ptr %10, i32 0, i32 2
  %21 = load i64, ptr %20, align 8, !tbaa !67
  call void @_set_modification_time(ptr noundef %19, i64 noundef %21)
  %22 = load i32, ptr %11, align 4, !tbaa !11
  %23 = icmp ne i32 %22, 0
  br i1 %23, label %24, label %33

24:                                               ; preds = %4
  %25 = load ptr, ptr %9, align 8, !tbaa !76
  %26 = call ptr @dcgettext(ptr noundef null, ptr noundef @.str.43, i32 noundef 5) #11
  %27 = getelementptr inbounds nuw %struct.dt_control_crawler_result_t, ptr %10, i32 0, i32 3
  %28 = load ptr, ptr %27, align 8, !tbaa !68
  call void @_log_synchronization(ptr noundef %25, ptr noundef %26, ptr noundef %28)
  %29 = load ptr, ptr %9, align 8, !tbaa !76
  %30 = call ptr @dcgettext(ptr noundef null, ptr noundef @.str.44, i32 noundef 5) #11
  %31 = getelementptr inbounds nuw %struct.dt_control_crawler_result_t, ptr %10, i32 0, i32 4
  %32 = load ptr, ptr %31, align 8, !tbaa !69
  call void @_log_synchronization(ptr noundef %29, ptr noundef %30, ptr noundef %32)
  br label %42

33:                                               ; preds = %4
  %34 = load ptr, ptr %5, align 8, !tbaa !87
  %35 = load ptr, ptr %6, align 8, !tbaa !88
  %36 = load ptr, ptr %9, align 8, !tbaa !76
  %37 = getelementptr inbounds nuw %struct.dt_control_crawler_gui_t, ptr %36, i32 0, i32 4
  call void @_append_row_to_remove(ptr noundef %34, ptr noundef %35, ptr noundef %37)
  %38 = load ptr, ptr %9, align 8, !tbaa !76
  %39 = call ptr @dcgettext(ptr noundef null, ptr noundef @.str.45, i32 noundef 5) #11
  %40 = getelementptr inbounds nuw %struct.dt_control_crawler_result_t, ptr %10, i32 0, i32 3
  %41 = load ptr, ptr %40, align 8, !tbaa !68
  call void @_log_synchronization(ptr noundef %38, ptr noundef %39, ptr noundef %41)
  br label %42

42:                                               ; preds = %33, %24
  call void @_free_crawler_result(ptr noundef %10)
  call void @llvm.lifetime.end.p0(i64 4, ptr %11) #11
  call void @llvm.lifetime.end.p0(i64 40, ptr %10) #11
  call void @llvm.lifetime.end.p0(i64 8, ptr %9) #11
  ret void
}