; Function Attrs: nounwind uwtable
define internal void @sync_db_to_xmp(ptr noundef %0, ptr noundef %1, ptr noundef %2, ptr noundef captures(none) %3) #0 {
  %5 = alloca %struct._GtkTreeIter, align 8
  %6 = alloca %struct._GtkTreeIter, align 8
  %7 = alloca %struct._GtkTreeIter, align 8
  %8 = alloca %struct.dt_control_crawler_result_t, align 8
  call void @llvm.lifetime.start.p0(i64 40, ptr nonnull %8) #13
  call void @llvm.memset.p0.i64(ptr noundef nonnull align 8 dereferenceable(40) %8, i8 0, i64 40, i1 false)
  %9 = getelementptr inbounds nuw i8, ptr %8, i64 24
  %10 = getelementptr inbounds nuw i8, ptr %8, i64 32
  %11 = getelementptr inbounds nuw i8, ptr %8, i64 16
  %12 = getelementptr inbounds nuw i8, ptr %8, i64 8
  call void (ptr, ptr, ...) @gtk_tree_model_get(ptr noundef %0, ptr noundef %2, i32 noundef 1, ptr noundef nonnull %9, i32 noundef 0, ptr noundef nonnull %8, i32 noundef 2, ptr noundef nonnull %10, i32 noundef 6, ptr noundef nonnull %11, i32 noundef 5, ptr noundef nonnull %12, i32 noundef -1) #13
  %13 = load i32, ptr %8, align 8, !tbaa !60
  %14 = call i32 @dt_image_write_sidecar_file(i32 noundef %13) #13
  %15 = load ptr, ptr %10, align 8, !tbaa !65
  %16 = load i64, ptr %11, align 8, !tbaa !63
  %17 = call ptr @g_file_new_for_path(ptr noundef %15) #13
  %18 = call ptr @g_file_query_info(ptr noundef %17, ptr noundef nonnull @.str.46, i32 noundef 0, ptr noundef null, ptr noundef null) #13
  %.not.i = icmp eq ptr %18, null
  br i1 %.not.i, label %_set_modification_time.exit, label %19

19:                                               ; preds = %4
  call void @g_file_info_set_attribute_uint64(ptr noundef nonnull %18, ptr noundef nonnull @.str.47, i64 noundef %16) #13
  %20 = call i32 @g_file_set_attributes_from_info(ptr noundef %17, ptr noundef nonnull %18, i32 noundef 0, ptr noundef null, ptr noundef null) #13
  call void @g_object_unref(ptr noundef %17) #13
  br label %_set_modification_time.exit

_set_modification_time.exit:                      ; preds = %4, %19
  %.sink.i = phi ptr [ %18, %19 ], [ %17, %4 ]
  call void @g_object_unref(ptr noundef %.sink.i) #13
  %.not = icmp eq i32 %14, 0
  br i1 %.not, label %43, label %21

21:                                               ; preds = %_set_modification_time.exit
  %22 = call ptr @dcgettext(ptr noundef null, ptr noundef nonnull @.str.43, i32 noundef 5) #13
  %23 = load ptr, ptr %9, align 8, !tbaa !64
  %.not.i9 = icmp eq ptr %23, null
  %24 = select i1 %.not.i9, ptr @.str.48, ptr %23
  %25 = call ptr (ptr, ...) @g_markup_printf_escaped(ptr noundef %22, ptr noundef nonnull %24) #13
  call void @llvm.lifetime.start.p0(i64 32, ptr nonnull %7) #13
  %26 = getelementptr inbounds nuw i8, ptr %3, i64 16
  %27 = load ptr, ptr %26, align 8, !tbaa !74
  %28 = tail call i64 @gtk_tree_view_get_type() #18
  %29 = call ptr @g_type_check_instance_cast(ptr noundef %27, i64 noundef %28) #13
  %30 = call ptr @gtk_tree_view_get_model(ptr noundef %29) #13
  %31 = tail call i64 @gtk_list_store_get_type() #18
  %32 = call ptr @g_type_check_instance_cast(ptr noundef %30, i64 noundef %31) #13
  call void @gtk_list_store_append(ptr noundef %32, ptr noundef nonnull %7) #13
  %33 = call ptr @g_type_check_instance_cast(ptr noundef %30, i64 noundef %31) #13
  call void (ptr, ptr, ...) @gtk_list_store_set(ptr noundef %33, ptr noundef nonnull %7, i32 noundef 0, ptr noundef %25, i32 noundef -1) #13
  call void @g_free(ptr noundef %25) #13
  call void @llvm.lifetime.end.p0(i64 32, ptr nonnull %7) #13
  %34 = call ptr @dcgettext(ptr noundef null, ptr noundef nonnull @.str.44, i32 noundef 5) #13
  %35 = load ptr, ptr %10, align 8, !tbaa !65
  %.not.i10 = icmp eq ptr %35, null
  %36 = select i1 %.not.i10, ptr @.str.48, ptr %35
  %37 = call ptr (ptr, ...) @g_markup_printf_escaped(ptr noundef %34, ptr noundef nonnull %36) #13
  call void @llvm.lifetime.start.p0(i64 32, ptr nonnull %6) #13
  %38 = load ptr, ptr %26, align 8, !tbaa !74
  %39 = call ptr @g_type_check_instance_cast(ptr noundef %38, i64 noundef %28) #13
  %40 = call ptr @gtk_tree_view_get_model(ptr noundef %39) #13
  %41 = call ptr @g_type_check_instance_cast(ptr noundef %40, i64 noundef %31) #13
  call void @gtk_list_store_append(ptr noundef %41, ptr noundef nonnull %6) #13
  %42 = call ptr @g_type_check_instance_cast(ptr noundef %40, i64 noundef %31) #13
  call void (ptr, ptr, ...) @gtk_list_store_set(ptr noundef %42, ptr noundef nonnull %6, i32 noundef 0, ptr noundef %37, i32 noundef -1) #13
  call void @g_free(ptr noundef %37) #13
  call void @llvm.lifetime.end.p0(i64 32, ptr nonnull %6) #13
  br label %60

43:                                               ; preds = %_set_modification_time.exit
  %44 = getelementptr inbounds nuw i8, ptr %3, i64 32
  %45 = call ptr @gtk_tree_row_reference_new(ptr noundef %0, ptr noundef %1) #13
  %46 = load ptr, ptr %44, align 8, !tbaa !75
  %47 = call ptr @g_list_append(ptr noundef %46, ptr noundef %45) #13
  store ptr %47, ptr %44, align 8, !tbaa !75
  %48 = call ptr @dcgettext(ptr noundef null, ptr noundef nonnull @.str.45, i32 noundef 5) #13
  %49 = load ptr, ptr %9, align 8, !tbaa !64
  %.not.i11 = icmp eq ptr %49, null
  %50 = select i1 %.not.i11, ptr @.str.48, ptr %49
  %51 = call ptr (ptr, ...) @g_markup_printf_escaped(ptr noundef %48, ptr noundef nonnull %50) #13
  call void @llvm.lifetime.start.p0(i64 32, ptr nonnull %5) #13
  %52 = getelementptr inbounds nuw i8, ptr %3, i64 16
  %53 = load ptr, ptr %52, align 8, !tbaa !74
  %54 = tail call i64 @gtk_tree_view_get_type() #18
  %55 = call ptr @g_type_check_instance_cast(ptr noundef %53, i64 noundef %54) #13
  %56 = call ptr @gtk_tree_view_get_model(ptr noundef %55) #13
  %57 = tail call i64 @gtk_list_store_get_type() #18
  %58 = call ptr @g_type_check_instance_cast(ptr noundef %56, i64 noundef %57) #13
  call void @gtk_list_store_append(ptr noundef %58, ptr noundef nonnull %5) #13
  %59 = call ptr @g_type_check_instance_cast(ptr noundef %56, i64 noundef %57) #13
  call void (ptr, ptr, ...) @gtk_list_store_set(ptr noundef %59, ptr noundef nonnull %5, i32 noundef 0, ptr noundef %51, i32 noundef -1) #13
  call void @g_free(ptr noundef %51) #13
  call void @llvm.lifetime.end.p0(i64 32, ptr nonnull %5) #13
  br label %60

60:                                               ; preds = %43, %21
  %61 = load ptr, ptr %9, align 8, !tbaa !64
  call void @g_free(ptr noundef %61) #13
  %62 = load ptr, ptr %10, align 8, !tbaa !65
  call void @g_free(ptr noundef %62) #13
  call void @llvm.lifetime.end.p0(i64 40, ptr nonnull %8) #13
  ret void
}